target datalayout = "e-m:e-p270:32:32-p271:32:32-p272:64:64-i64:64-i128:128-f80:128-n8:16:32:64-S128"
target triple = "x86_64-pc-linux-gnu"

%"class.pxrInternal_v0_24__pxrReserved__::GfMatrix3f" = type { %"class.pxrInternal_v0_24__pxrReserved__::GfMatrixData" }
%"class.pxrInternal_v0_24__pxrReserved__::GfMatrixData" = type { [9 x float] }

; Function Attrs: mustprogress nounwind uwtable
define linkonce_odr noundef ptr @_ZNK32pxrInternal_v0_24__pxrReserved__12GfMatrixDataIfLi3ELi3EEixEi(ptr noundef nonnull align 4 dereferenceable(36) %0, i32 noundef %1) #2 comdat align 2 {
  %3 = alloca ptr, align 8
  %4 = alloca i32, align 4
  store ptr %0, ptr %3, align 8
  store i32 %1, ptr %4, align 4
  %5 = load ptr, ptr %3, align 8
  %6 = getelementptr inbounds nuw %"class.pxrInternal_v0_24__pxrReserved__::GfMatrixData", ptr %5, i32 0, i32 0
  %7 = getelementptr inbounds [9 x float], ptr %6, i64 0, i64 0
  %8 = load i32, ptr %4, align 4
  %9 = mul nsw i32 %8, 3
  %10 = sext i32 %9 to i64
  %11 = getelementptr inbounds float, ptr %7, i64 %10
  ret ptr %11
}

; Function Attrs: mustprogress uwtable
define noundef zeroext i1 @_ZNK32pxrInternal_v0_24__pxrReserved__10GfMatrix3feqERKS0_(ptr noundef nonnull align 4 dereferenceable(36) %0, ptr noundef nonnull align 4 dereferenceable(36) %1) #0 align 2 {
  %3 = alloca ptr, align 8
  %4 = alloca ptr, align 8
  store ptr %0, ptr %3, align 8
  store ptr %1, ptr %4, align 8
  %5 = load ptr, ptr %3, align 8
  %6 = getelementptr inbounds nuw %"class.pxrInternal_v0_24__pxrReserved__::GfMatrix3f", ptr %5, i32 0, i32 0
  %7 = call noundef ptr @_ZNK32pxrInternal_v0_24__pxrReserved__12GfMatrixDataIfLi3ELi3EEixEi(ptr noundef nonnull align 4 dereferenceable(36) %6, i32 noundef 0)
  %8 = getelementptr inbounds float, ptr %7, i64 0
  %9 = load float, ptr %8, align 4
  %10 = load ptr, ptr %4, align 8
  %11 = getelementptr inbounds nuw %"class.pxrInternal_v0_24__pxrReserved__::GfMatrix3f", ptr %10, i32 0, i32 0
  %12 = call noundef ptr @_ZNK32pxrInternal_v0_24__pxrReserved__12GfMatrixDataIfLi3ELi3EEixEi(ptr noundef nonnull align 4 dereferenceable(36) %11, i32 noundef 0)
  %13 = getelementptr inbounds float, ptr %12, i64 0
  %14 = load float, ptr %13, align 4
  %15 = fcmp oeq float %9, %14
  br i1 %15, label %16, label %104

16:                                               ; preds = %2
  %17 = getelementptr inbounds nuw %"class.pxrInternal_v0_24__pxrReserved__::GfMatrix3f", ptr %5, i32 0, i32 0
  %18 = call noundef ptr @_ZNK32pxrInternal_v0_24__pxrReserved__12GfMatrixDataIfLi3ELi3EEixEi(ptr noundef nonnull align 4 dereferenceable(36) %17, i32 noundef 0)
  %19 = getelementptr inbounds float, ptr %18, i64 1
  %20 = load float, ptr %19, align 4
  %21 = load ptr, ptr %4, align 8
  %22 = getelementptr inbounds nuw %"class.pxrInternal_v0_24__pxrReserved__::GfMatrix3f", ptr %21, i32 0, i32 0
  %23 = call noundef ptr @_ZNK32pxrInternal_v0_24__pxrReserved__12GfMatrixDataIfLi3ELi3EEixEi(ptr noundef nonnull align 4 dereferenceable(36) %22, i32 noundef 0)
  %24 = getelementptr inbounds float, ptr %23, i64 1
  %25 = load float, ptr %24, align 4
  %26 = fcmp oeq float %20, %25
  br i1 %26, label %27, label %104

27:                                               ; preds = %16
  %28 = getelementptr inbounds nuw %"class.pxrInternal_v0_24__pxrReserved__::GfMatrix3f", ptr %5, i32 0, i32 0
  %29 = call noundef ptr @_ZNK32pxrInternal_v0_24__pxrReserved__12GfMatrixDataIfLi3ELi3EEixEi(ptr noundef nonnull align 4 dereferenceable(36) %28, i32 noundef 0)
  %30 = getelementptr inbounds float, ptr %29, i64 2
  %31 = load float, ptr %30, align 4
  %32 = load ptr, ptr %4, align 8
  %33 = getelementptr inbounds nuw %"class.pxrInternal_v0_24__pxrReserved__::GfMatrix3f", ptr %32, i32 0, i32 0
  %34 = call noundef ptr @_ZNK32pxrInternal_v0_24__pxrReserved__12GfMatrixDataIfLi3ELi3EEixEi(ptr noundef nonnull align 4 dereferenceable(36) %33, i32 noundef 0)
  %35 = getelementptr inbounds float, ptr %34, i64 2
  %36 = load float, ptr %35, align 4
  %37 = fcmp oeq float %31, %36
  br i1 %37, label %38, label %104

38:                                               ; preds = %27
  %39 = getelementptr inbounds nuw %"class.pxrInternal_v0_24__pxrReserved__::GfMatrix3f", ptr %5, i32 0, i32 0
  %40 = call noundef ptr @_ZNK32pxrInternal_v0_24__pxrReserved__12GfMatrixDataIfLi3ELi3EEixEi(ptr noundef nonnull align 4 dereferenceable(36) %39, i32 noundef 1)
  %41 = getelementptr inbounds float, ptr %40, i64 0
  %42 = load float, ptr %41, align 4
  %43 = load ptr, ptr %4, align 8
  %44 = getelementptr inbounds nuw %"class.pxrInternal_v0_24__pxrReserved__::GfMatrix3f", ptr %43, i32 0, i32 0
  %45 = call noundef ptr @_ZNK32pxrInternal_v0_24__pxrReserved__12GfMatrixDataIfLi3ELi3EEixEi(ptr noundef nonnull align 4 dereferenceable(36) %44, i32 noundef 1)
  %46 = getelementptr inbounds float, ptr %45, i64 0
  %47 = load float, ptr %46, align 4
  %48 = fcmp oeq float %42, %47
  br i1 %48, label %49, label %104

49:                                               ; preds = %38
  %50 = getelementptr inbounds nuw %"class.pxrInternal_v0_24__pxrReserved__::GfMatrix3f", ptr %5, i32 0, i32 0
  %51 = call noundef ptr @_ZNK32pxrInternal_v0_24__pxrReserved__12GfMatrixDataIfLi3ELi3EEixEi(ptr noundef nonnull align 4 dereferenceable(36) %50, i32 noundef 1)
  %52 = getelementptr inbounds float, ptr %51, i64 1
  %53 = load float, ptr %52, align 4
  %54 = load ptr, ptr %4, align 8
  %55 = getelementptr inbounds nuw %"class.pxrInternal_v0_24__pxrReserved__::GfMatrix3f", ptr %54, i32 0, i32 0
  %56 = call noundef ptr @_ZNK32pxrInternal_v0_24__pxrReserved__12GfMatrixDataIfLi3ELi3EEixEi(ptr noundef nonnull align 4 dereferenceable(36) %55, i32 noundef 1)
  %57 = getelementptr inbounds float, ptr %56, i64 1
  %58 = load float, ptr %57, align 4
  %59 = fcmp oeq float %53, %58
  br i1 %59, label %60, label %104

60:                                               ; preds = %49
  %61 = getelementptr inbounds nuw %"class.pxrInternal_v0_24__pxrReserved__::GfMatrix3f", ptr %5, i32 0, i32 0
  %62 = call noundef ptr @_ZNK32pxrInternal_v0_24__pxrReserved__12GfMatrixDataIfLi3ELi3EEixEi(ptr noundef nonnull align 4 dereferenceable(36) %61, i32 noundef 1)
  %63 = getelementptr inbounds float, ptr %62, i64 2
  %64 = load float, ptr %63, align 4
  %65 = load ptr, ptr %4, align 8
  %66 = getelementptr inbounds nuw %"class.pxrInternal_v0_24__pxrReserved__::GfMatrix3f", ptr %65, i32 0, i32 0
  %67 = call noundef ptr @_ZNK32pxrInternal_v0_24__pxrReserved__12GfMatrixDataIfLi3ELi3EEixEi(ptr noundef nonnull align 4 dereferenceable(36) %66, i32 noundef 1)
  %68 = getelementptr inbounds float, ptr %67, i64 2
  %69 = load float, ptr %68, align 4
  %70 = fcmp oeq float %64, %69
  br i1 %70, label %71, label %104

71:                                               ; preds = %60
  %72 = getelementptr inbounds nuw %"class.pxrInternal_v0_24__pxrReserved__::GfMatrix3f", ptr %5, i32 0, i32 0
  %73 = call noundef ptr @_ZNK32pxrInternal_v0_24__pxrReserved__12GfMatrixDataIfLi3ELi3EEixEi(ptr noundef nonnull align 4 dereferenceable(36) %72, i32 noundef 2)
  %74 = getelementptr inbounds float, ptr %73, i64 0
  %75 = load float, ptr %74, align 4
  %76 = load ptr, ptr %4, align 8
  %77 = getelementptr inbounds nuw %"class.pxrInternal_v0_24__pxrReserved__::GfMatrix3f", ptr %76, i32 0, i32 0
  %78 = call noundef ptr @_ZNK32pxrInternal_v0_24__pxrReserved__12GfMatrixDataIfLi3ELi3EEixEi(ptr noundef nonnull align 4 dereferenceable(36) %77, i32 noundef 2)
  %79 = getelementptr inbounds float, ptr %78, i64 0
  %80 = load float, ptr %79, align 4
  %81 = fcmp oeq float %75, %80
  br i1 %81, label %82, label %104

82:                                               ; preds = %71
  %83 = getelementptr inbounds nuw %"class.pxrInternal_v0_24__pxrReserved__::GfMatrix3f", ptr %5, i32 0, i32 0
  %84 = call noundef ptr @_ZNK32pxrInternal_v0_24__pxrReserved__12GfMatrixDataIfLi3ELi3EEixEi(ptr noundef nonnull align 4 dereferenceable(36) %83, i32 noundef 2)
  %85 = getelementptr inbounds float, ptr %84, i64 1
  %86 = load float, ptr %85, align 4
  %87 = load ptr, ptr %4, align 8
  %88 = getelementptr inbounds nuw %"class.pxrInternal_v0_24__pxrReserved__::GfMatrix3f", ptr %87, i32 0, i32 0
  %89 = call noundef ptr @_ZNK32pxrInternal_v0_24__pxrReserved__12GfMatrixDataIfLi3ELi3EEixEi(ptr noundef nonnull align 4 dereferenceable(36) %88, i32 noundef 2)
  %90 = getelementptr inbounds float, ptr %89, i64 1
  %91 = load float, ptr %90, align 4
  %92 = fcmp oeq float %86, %91
  br i1 %92, label %93, label %104

93:                                               ; preds = %82
  %94 = getelementptr inbounds nuw %"class.pxrInternal_v0_24__pxrReserved__::GfMatrix3f", ptr %5, i32 0, i32 0
  %95 = call noundef ptr @_ZNK32pxrInternal_v0_24__pxrReserved__12GfMatrixDataIfLi3ELi3EEixEi(ptr noundef nonnull align 4 dereferenceable(36) %94, i32 noundef 2)
  %96 = getelementptr inbounds float, ptr %95, i64 2
  %97 = load float, ptr %96, align 4
  %98 = load ptr, ptr %4, align 8
  %99 = getelementptr inbounds nuw %"class.pxrInternal_v0_24__pxrReserved__::GfMatrix3f", ptr %98, i32 0, i32 0
  %100 = call noundef ptr @_ZNK32pxrInternal_v0_24__pxrReserved__12GfMatrixDataIfLi3ELi3EEixEi(ptr noundef nonnull align 4 dereferenceable(36) %99, i32 noundef 2)
  %101 = getelementptr inbounds float, ptr %100, i64 2
  %102 = load float, ptr %101, align 4
  %103 = fcmp oeq float %97, %102
  br label %104

104:                                              ; preds = %93, %82, %71, %60, %49, %38, %27, %16, %2
  %105 = phi i1 [ false, %82 ], [ false, %71 ], [ false, %60 ], [ false, %49 ], [ false, %38 ], [ false, %27 ], [ false, %16 ], [ false, %2 ], [ %103, %93 ]
  ret i1 %105
}