; Function Attrs: mustprogress nofree norecurse nosync nounwind willreturn memory(argmem: read) uwtable
define noundef zeroext i1 @_ZNK32pxrInternal_v0_24__pxrReserved__10GfMatrix3feqERKS0_(ptr nocapture noundef nonnull readonly align 4 dereferenceable(36) %0, ptr nocapture noundef nonnull readonly align 4 dereferenceable(36) %1) local_unnamed_addr #6 align 2 {
  %3 = load float, ptr %0, align 4
  %4 = load float, ptr %1, align 4
  %5 = fcmp oeq float %3, %4
  br i1 %5, label %6, label %54

6:                                                ; preds = %2
  %7 = getelementptr inbounds i8, ptr %0, i64 4
  %8 = load float, ptr %7, align 4
  %9 = getelementptr inbounds i8, ptr %1, i64 4
  %10 = load float, ptr %9, align 4
  %11 = fcmp oeq float %8, %10
  br i1 %11, label %12, label %54

12:                                               ; preds = %6
  %13 = getelementptr inbounds i8, ptr %0, i64 8
  %14 = load float, ptr %13, align 4
  %15 = getelementptr inbounds i8, ptr %1, i64 8
  %16 = load float, ptr %15, align 4
  %17 = fcmp oeq float %14, %16
  br i1 %17, label %18, label %54

18:                                               ; preds = %12
  %19 = getelementptr inbounds i8, ptr %0, i64 12
  %20 = load float, ptr %19, align 4
  %21 = getelementptr inbounds i8, ptr %1, i64 12
  %22 = load float, ptr %21, align 4
  %23 = fcmp oeq float %20, %22
  br i1 %23, label %24, label %54

24:                                               ; preds = %18
  %25 = getelementptr inbounds i8, ptr %0, i64 16
  %26 = load float, ptr %25, align 4
  %27 = getelementptr inbounds i8, ptr %1, i64 16
  %28 = load float, ptr %27, align 4
  %29 = fcmp oeq float %26, %28
  br i1 %29, label %30, label %54

30:                                               ; preds = %24
  %31 = getelementptr inbounds i8, ptr %0, i64 20
  %32 = load float, ptr %31, align 4
  %33 = getelementptr inbounds i8, ptr %1, i64 20
  %34 = load float, ptr %33, align 4
  %35 = fcmp oeq float %32, %34
  br i1 %35, label %36, label %54

36:                                               ; preds = %30
  %37 = getelementptr inbounds i8, ptr %0, i64 24
  %38 = load float, ptr %37, align 4
  %39 = getelementptr inbounds i8, ptr %1, i64 24
  %40 = load float, ptr %39, align 4
  %41 = fcmp oeq float %38, %40
  br i1 %41, label %42, label %54

42:                                               ; preds = %36
  %43 = getelementptr inbounds i8, ptr %0, i64 28
  %44 = load float, ptr %43, align 4
  %45 = getelementptr inbounds i8, ptr %1, i64 28
  %46 = load float, ptr %45, align 4
  %47 = fcmp oeq float %44, %46
  br i1 %47, label %48, label %54

48:                                               ; preds = %42
  %49 = getelementptr inbounds i8, ptr %0, i64 32
  %50 = load float, ptr %49, align 4
  %51 = getelementptr inbounds i8, ptr %1, i64 32
  %52 = load float, ptr %51, align 4
  %53 = fcmp oeq float %50, %52
  br label %54

54:                                               ; preds = %48, %42, %36, %30, %24, %18, %12, %6, %2
  %55 = phi i1 [ false, %42 ], [ false, %36 ], [ false, %30 ], [ false, %24 ], [ false, %18 ], [ false, %12 ], [ false, %6 ], [ false, %2 ], [ %53, %48 ]
  ret i1 %55
}